target datalayout = "e-m:e-p270:32:32-p271:32:32-p272:64:64-i64:64-i128:128-f80:128-n8:16:32:64-S128"
target triple = "x86_64-pc-linux-gnu"

%struct.hashipv4 = type { i32, i8, [16 x i8], [256 x i8], [19 x i8] }

; Function Attrs: null_pointer_is_valid sspstrong uwtable
define internal void @sharkd_session_tap_ipv4_host_insert_sorted(ptr noundef %0, ptr noundef %1, ptr noundef %2) #0 {
  %4 = alloca ptr, align 8
  %5 = alloca ptr, align 8
  %6 = alloca ptr, align 8
  %7 = alloca ptr, align 8
  %8 = alloca ptr, align 8
  store ptr %0, ptr %4, align 8
  store ptr %1, ptr %5, align 8
  store ptr %2, ptr %6, align 8
  call void @llvm.lifetime.start.p0(i64 8, ptr %7) #21
  %9 = load ptr, ptr %5, align 8
  store ptr %9, ptr %7, align 8
  call void @llvm.lifetime.start.p0(i64 8, ptr %8) #21
  %10 = load ptr, ptr %6, align 8
  store ptr %10, ptr %8, align 8
  %11 = load ptr, ptr %7, align 8
  %12 = getelementptr inbounds nuw %struct.hashipv4, ptr %11, i32 0, i32 1
  %13 = load i8, ptr %12, align 4
  %14 = zext i8 %13 to i32
  %15 = and i32 %14, 2
  %16 = icmp ne i32 %15, 0
  br i1 %16, label %17, label %23

17:                                               ; preds = %3
  %18 = load ptr, ptr %8, align 8
  %19 = load ptr, ptr %18, align 8
  %20 = load ptr, ptr %7, align 8
  %21 = call ptr @g_slist_insert_sorted(ptr noundef %19, ptr noundef %20, ptr noundef @sharkd_session_tap_ipv4_host_compare)
  %22 = load ptr, ptr %8, align 8
  store ptr %21, ptr %22, align 8
  br label %23

23:                                               ; preds = %17, %3
  call void @llvm.lifetime.end.p0(i64 8, ptr %8) #21
  call void @llvm.lifetime.end.p0(i64 8, ptr %7) #21
  ret void
}