; Function Attrs: null_pointer_is_valid sspstrong uwtable
define internal void @sharkd_session_tap_ipv4_host_insert_sorted(ptr readnone captures(none) %0, ptr noundef %1, ptr noundef captures(none) %2) #0 {
  %4 = getelementptr inbounds nuw i8, ptr %1, i64 4
  %5 = load i8, ptr %4, align 4
  %6 = and i8 %5, 2
  %.not = icmp eq i8 %6, 0
  br i1 %.not, label %10, label %7

7:                                                ; preds = %3
  %8 = load ptr, ptr %2, align 8
  %9 = tail call ptr @g_slist_insert_sorted(ptr noundef %8, ptr noundef %1, ptr noundef nonnull @sharkd_session_tap_ipv4_host_compare)
  store ptr %9, ptr %2, align 8
  br label %10

10:                                               ; preds = %7, %3
  ret void
}